(dp1
S'vid'
p2
I0
sS'fabric_id'
p3
I2
sS'external_dhcp'
p4
NsS'id'
p5
I5003
sS'name'
p6
S'untagged'
p7
sS'fabric'
p8
S'fabric-2'
p9
sS'space'
p10
S'undefined'
p11
sS'dhcp_on'
p12
I01
sS'mtu'
p13
I1500
sS'relay_vlan'
p14
NsS'primary_rack'
p15
S'8x76yr'
p16
sS'fake-value'
p17
NsS'secondary_rack'
p18
NsS'resource_uri'
p19
S'/MAAS/api/2.0/vlans/5003/'
p20
s.